; ModuleID = '31/565.c'
source_filename = "31/565.c"
target datalayout = "e-m:e-p270:32:32-p271:32:32-p272:64:64-i64:64-f80:128-n8:16:32:64-S128"
target triple = "x86_64-pc-linux-gnu"

%struct.student = type { [100 x i8], [100 x i8], i8, i32, [100 x i8], [100 x i8], %struct.student* }

@.str = private unnamed_addr constant [3 x i8] c"%s\00", align 1
@.str.1 = private unnamed_addr constant [15 x i8] c"%s %c %d %s %s\00", align 1
@.str.2 = private unnamed_addr constant [19 x i8] c"%s %s %c %d %s %s\0A\00", align 1

; Function Attrs: noinline nounwind uwtable
define dso_local i32 @main() #0 {
  %1 = alloca i32, align 4
  %2 = alloca i32, align 4
  %3 = alloca [10000 x %struct.student], align 16
  %4 = alloca %struct.student*, align 8
  %5 = alloca %struct.student*, align 8
  %6 = alloca i32, align 4
  store i32 0, i32* %1, align 4
  store i32 0, i32* %2, align 4
  br label %7

7:                                                ; preds = %51, %0
  %8 = load i32, i32* %2, align 4
  %9 = icmp slt i32 %8, 10000
  br i1 %9, label %10, label %54

10:                                               ; preds = %7
  %11 = load i32, i32* %2, align 4
  %12 = sext i32 %11 to i64
  %13 = getelementptr inbounds [10000 x %struct.student], [10000 x %struct.student]* %3, i64 0, i64 %12
  %14 = getelementptr inbounds %struct.student, %struct.student* %13, i32 0, i32 0
  %15 = getelementptr inbounds [100 x i8], [100 x i8]* %14, i64 0, i64 0
  %16 = call i32 (i8*, ...) @__isoc99_scanf(i8* getelementptr inbounds ([3 x i8], [3 x i8]* @.str, i64 0, i64 0), i8* %15)
  %17 = load i32, i32* %2, align 4
  %18 = sext i32 %17 to i64
  %19 = getelementptr inbounds [10000 x %struct.student], [10000 x %struct.student]* %3, i64 0, i64 %18
  %20 = getelementptr inbounds %struct.student, %struct.student* %19, i32 0, i32 0
  %21 = getelementptr inbounds [100 x i8], [100 x i8]* %20, i64 0, i64 0
  %22 = load i8, i8* %21, align 16
  %23 = sext i8 %22 to i32
  %24 = icmp eq i32 %23, 101
  br i1 %24, label %25, label %26

25:                                               ; preds = %10
  br label %54

26:                                               ; preds = %10
  %27 = load i32, i32* %2, align 4
  %28 = sext i32 %27 to i64
  %29 = getelementptr inbounds [10000 x %struct.student], [10000 x %struct.student]* %3, i64 0, i64 %28
  %30 = getelementptr inbounds %struct.student, %struct.student* %29, i32 0, i32 1
  %31 = getelementptr inbounds [100 x i8], [100 x i8]* %30, i64 0, i64 0
  %32 = load i32, i32* %2, align 4
  %33 = sext i32 %32 to i64
  %34 = getelementptr inbounds [10000 x %struct.student], [10000 x %struct.student]* %3, i64 0, i64 %33
  %35 = getelementptr inbounds %struct.student, %struct.student* %34, i32 0, i32 2
  %36 = load i32, i32* %2, align 4
  %37 = sext i32 %36 to i64
  %38 = getelementptr inbounds [10000 x %struct.student], [10000 x %struct.student]* %3, i64 0, i64 %37
  %39 = getelementptr inbounds %struct.student, %struct.student* %38, i32 0, i32 3
  %40 = load i32, i32* %2, align 4
  %41 = sext i32 %40 to i64
  %42 = getelementptr inbounds [10000 x %struct.student], [10000 x %struct.student]* %3, i64 0, i64 %41
  %43 = getelementptr inbounds %struct.student, %struct.student* %42, i32 0, i32 4
  %44 = getelementptr inbounds [100 x i8], [100 x i8]* %43, i64 0, i64 0
  %45 = load i32, i32* %2, align 4
  %46 = sext i32 %45 to i64
  %47 = getelementptr inbounds [10000 x %struct.student], [10000 x %struct.student]* %3, i64 0, i64 %46
  %48 = getelementptr inbounds %struct.student, %struct.student* %47, i32 0, i32 5
  %49 = getelementptr inbounds [100 x i8], [100 x i8]* %48, i64 0, i64 0
  %50 = call i32 (i8*, ...) @__isoc99_scanf(i8* getelementptr inbounds ([15 x i8], [15 x i8]* @.str.1, i64 0, i64 0), i8* %31, i8* %35, i32* %39, i8* %44, i8* %49)
  br label %51

51:                                               ; preds = %26
  %52 = load i32, i32* %2, align 4
  %53 = add nsw i32 %52, 1
  store i32 %53, i32* %2, align 4
  br label %7

54:                                               ; preds = %25, %7
  %55 = load i32, i32* %2, align 4
  %56 = sub nsw i32 %55, 1
  store i32 %56, i32* %2, align 4
  %57 = load i32, i32* %2, align 4
  %58 = sext i32 %57 to i64
  %59 = getelementptr inbounds [10000 x %struct.student], [10000 x %struct.student]* %3, i64 0, i64 %58
  store %struct.student* %59, %struct.student** %4, align 8
  %60 = load i32, i32* %2, align 4
  store i32 %60, i32* %6, align 4
  br label %61

61:                                               ; preds = %73, %54
  %62 = load i32, i32* %6, align 4
  %63 = icmp sgt i32 %62, 0
  br i1 %63, label %64, label %76

64:                                               ; preds = %61
  %65 = load i32, i32* %6, align 4
  %66 = sub nsw i32 %65, 1
  %67 = sext i32 %66 to i64
  %68 = getelementptr inbounds [10000 x %struct.student], [10000 x %struct.student]* %3, i64 0, i64 %67
  %69 = load i32, i32* %6, align 4
  %70 = sext i32 %69 to i64
  %71 = getelementptr inbounds [10000 x %struct.student], [10000 x %struct.student]* %3, i64 0, i64 %70
  %72 = getelementptr inbounds %struct.student, %struct.student* %71, i32 0, i32 6
  store %struct.student* %68, %struct.student** %72, align 8
  br label %73

73:                                               ; preds = %64
  %74 = load i32, i32* %6, align 4
  %75 = add nsw i32 %74, -1
  store i32 %75, i32* %6, align 4
  br label %61

76:                                               ; preds = %61
  %77 = getelementptr inbounds [10000 x %struct.student], [10000 x %struct.student]* %3, i64 0, i64 0
  %78 = getelementptr inbounds %struct.student, %struct.student* %77, i32 0, i32 6
  store %struct.student* null, %struct.student** %78, align 8
  %79 = load %struct.student*, %struct.student** %4, align 8
  store %struct.student* %79, %struct.student** %5, align 8
  br label %80

80:                                               ; preds = %104, %76
  %81 = load %struct.student*, %struct.student** %5, align 8
  %82 = getelementptr inbounds %struct.student, %struct.student* %81, i32 0, i32 0
  %83 = getelementptr inbounds [100 x i8], [100 x i8]* %82, i64 0, i64 0
  %84 = load %struct.student*, %struct.student** %5, align 8
  %85 = getelementptr inbounds %struct.student, %struct.student* %84, i32 0, i32 1
  %86 = getelementptr inbounds [100 x i8], [100 x i8]* %85, i64 0, i64 0
  %87 = load %struct.student*, %struct.student** %5, align 8
  %88 = getelementptr inbounds %struct.student, %struct.student* %87, i32 0, i32 2
  %89 = load i8, i8* %88, align 8
  %90 = sext i8 %89 to i32
  %91 = load %struct.student*, %struct.student** %5, align 8
  %92 = getelementptr inbounds %struct.student, %struct.student* %91, i32 0, i32 3
  %93 = load i32, i32* %92, align 4
  %94 = load %struct.student*, %struct.student** %5, align 8
  %95 = getelementptr inbounds %struct.student, %struct.student* %94, i32 0, i32 4
  %96 = getelementptr inbounds [100 x i8], [100 x i8]* %95, i64 0, i64 0
  %97 = load %struct.student*, %struct.student** %5, align 8
  %98 = getelementptr inbounds %struct.student, %struct.student* %97, i32 0, i32 5
  %99 = getelementptr inbounds [100 x i8], [100 x i8]* %98, i64 0, i64 0
  %100 = call i32 (i8*, ...) @printf(i8* getelementptr inbounds ([19 x i8], [19 x i8]* @.str.2, i64 0, i64 0), i8* %83, i8* %86, i32 %90, i32 %93, i8* %96, i8* %99)
  %101 = load %struct.student*, %struct.student** %5, align 8
  %102 = getelementptr inbounds %struct.student, %struct.student* %101, i32 0, i32 6
  %103 = load %struct.student*, %struct.student** %102, align 8
  store %struct.student* %103, %struct.student** %5, align 8
  br label %104

104:                                              ; preds = %80
  %105 = load %struct.student*, %struct.student** %5, align 8
  %106 = icmp ne %struct.student* %105, null
  br i1 %106, label %80, label %107

107:                                              ; preds = %104
  ret i32 0
}

declare dso_local i32 @__isoc99_scanf(i8*, ...) #1

declare dso_local i32 @printf(i8*, ...) #1


!llvm.module.flags = !{!0}
!llvm.ident = !{!1}

!0 = !{i32 1, !"wchar_size", i32 4}
!1 = !{!"clang version 10.0.0-4ubuntu1 "}
